target datalayout = "e-m:e-p270:32:32-p271:32:32-p272:64:64-i64:64-i128:128-f80:128-n8:16:32:64-S128"
target triple = "x86_64-pc-linux-gnu"

%class.goal = type <{ ptr, %class.ref, %class.ref.0, %class.ref.1, i32, [4 x i8], %"class.std::__cxx11::basic_string", %"class.parray_manager<ast_manager::expr_array_config>::ref", %"class.parray_manager<ast_manager::expr_array_config>::ref", %"class.parray_manager<ast_manager::expr_dependency_array_config>::ref", i32, [4 x i8] }>
%class.ref = type { ptr }
%class.ref.0 = type { ptr }
%class.ref.1 = type { ptr }
%"class.std::__cxx11::basic_string" = type { %"struct.std::__cxx11::basic_string<char>::_Alloc_hider", i64, %union.anon }
%"struct.std::__cxx11::basic_string<char>::_Alloc_hider" = type { ptr }
%union.anon = type { i64, [8 x i8] }
%"class.parray_manager<ast_manager::expr_array_config>::ref" = type <{ ptr, i32, [4 x i8] }>
%"class.parray_manager<ast_manager::expr_dependency_array_config>::ref" = type <{ ptr, i32, [4 x i8] }>
%class.app = type { %class.expr, ptr, i32, %struct.app_flags, [0 x ptr] }
%class.expr = type { %class.ast }
%class.ast = type { i32, i32, i32, i32 }
%struct.app_flags = type <{ i16, i8, i8 }>

; Function Attrs: mustprogress nounwind uwtable
define linkonce_odr hidden noundef nonnull align 8 dereferenceable(976) ptr @_ZNK4goal1mEv(ptr noundef nonnull align 8 dereferenceable(124) %0) #4 comdat align 2 {
  %2 = alloca ptr, align 8
  store ptr %0, ptr %2, align 8, !tbaa !14
  %3 = load ptr, ptr %2, align 8
  %4 = getelementptr inbounds nuw %class.goal, ptr %3, i32 0, i32 0
  %5 = load ptr, ptr %4, align 8, !tbaa !121
  ret ptr %5
}

; Function Attrs: mustprogress nounwind uwtable
define linkonce_odr hidden noundef ptr @_ZNK3app7get_argEj(ptr noundef nonnull align 8 dereferenceable(32) %0, i32 noundef %1) #4 comdat align 2 {
  %3 = alloca ptr, align 8
  %4 = alloca i32, align 4
  store ptr %0, ptr %3, align 8, !tbaa !129
  store i32 %1, ptr %4, align 4, !tbaa !125
  %5 = load ptr, ptr %3, align 8
  %6 = getelementptr inbounds nuw %class.app, ptr %5, i32 0, i32 4
  %7 = load i32, ptr %4, align 4, !tbaa !125
  %8 = zext i32 %7 to i64
  %9 = getelementptr inbounds nuw [0 x ptr], ptr %6, i64 0, i64 %8
  %10 = load ptr, ptr %9, align 8, !tbaa !127
  ret ptr %10
}

; Function Attrs: mustprogress nounwind uwtable
define linkonce_odr hidden noundef i32 @_ZNK3app12get_num_argsEv(ptr noundef nonnull align 8 dereferenceable(32) %0) #4 comdat align 2 {
  %2 = alloca ptr, align 8
  store ptr %0, ptr %2, align 8, !tbaa !129
  %3 = load ptr, ptr %2, align 8
  %4 = getelementptr inbounds nuw %class.app, ptr %3, i32 0, i32 2
  %5 = load i32, ptr %4, align 8, !tbaa !173
  ret i32 %5
}

; Function Attrs: mustprogress uwtable
define hidden void @_ZN4goal11process_andEbP3appS1_PN18dependency_managerIN11ast_manager22expr_dependency_configEE10dependencyER7obj_refI4exprS3_ERS8_IS0_S3_E(ptr noundef nonnull align 8 dereferenceable(124) %0, i1 noundef zeroext %1, ptr noundef %2, ptr noundef %3, ptr noundef %4, ptr noundef nonnull align 8 dereferenceable(16) %5, ptr noundef nonnull align 8 dereferenceable(16) %6) #5 align 2 {
  %8 = alloca ptr, align 8
  %9 = alloca i8, align 1
  %10 = alloca ptr, align 8
  %11 = alloca ptr, align 8
  %12 = alloca ptr, align 8
  %13 = alloca ptr, align 8
  %14 = alloca ptr, align 8
  %15 = alloca i32, align 4
  %16 = alloca i32, align 4
  %17 = alloca i32, align 4
  store ptr %0, ptr %8, align 8, !tbaa !14
  %18 = zext i1 %1 to i8
  store i8 %18, ptr %9, align 1, !tbaa !18
  store ptr %2, ptr %10, align 8, !tbaa !129
  store ptr %3, ptr %11, align 8, !tbaa !129
  store ptr %4, ptr %12, align 8, !tbaa !130
  store ptr %5, ptr %13, align 8, !tbaa !144
  store ptr %6, ptr %14, align 8, !tbaa !134
  %19 = load ptr, ptr %8, align 8
  call void @llvm.lifetime.start.p0(i64 4, ptr %15) #3
  %20 = load ptr, ptr %10, align 8, !tbaa !129
  %21 = call noundef i32 @_ZNK3app12get_num_argsEv(ptr noundef nonnull align 8 dereferenceable(32) %20)
  store i32 %21, ptr %15, align 4, !tbaa !125
  call void @llvm.lifetime.start.p0(i64 4, ptr %16) #3
  store i32 0, ptr %16, align 4, !tbaa !125
  br label %22

22:                                               ; preds = %52, %7
  %23 = load i32, ptr %16, align 4, !tbaa !125
  %24 = load i32, ptr %15, align 4, !tbaa !125
  %25 = icmp ult i32 %23, %24
  br i1 %25, label %27, label %26

26:                                               ; preds = %22
  store i32 2, ptr %17, align 4
  br label %55

27:                                               ; preds = %22
  %28 = getelementptr inbounds nuw %class.goal, ptr %19, i32 0, i32 10
  %29 = load i32, ptr %28, align 8
  %30 = lshr i32 %29, 29
  %31 = and i32 %30, 1
  %32 = icmp ne i32 %31, 0
  br i1 %32, label %33, label %34

33:                                               ; preds = %27
  store i32 1, ptr %17, align 4
  br label %55

34:                                               ; preds = %27
  %35 = load i8, ptr %9, align 1, !tbaa !18, !range !36, !noundef !37
  %36 = trunc i8 %35 to i1
  br i1 %36, label %37, label %40

37:                                               ; preds = %34
  %38 = load i32, ptr %16, align 4, !tbaa !125
  %39 = icmp eq i32 %38, 0
  br label %40

40:                                               ; preds = %37, %34
  %41 = phi i1 [ false, %34 ], [ %39, %37 ]
  %42 = load ptr, ptr %10, align 8, !tbaa !129
  %43 = load i32, ptr %16, align 4, !tbaa !125
  %44 = call noundef ptr @_ZNK3app7get_argEj(ptr noundef nonnull align 8 dereferenceable(32) %42, i32 noundef %43)
  %45 = call noundef nonnull align 8 dereferenceable(976) ptr @_ZNK4goal1mEv(ptr noundef nonnull align 8 dereferenceable(124) %19)
  %46 = load ptr, ptr %11, align 8, !tbaa !129
  %47 = load i32, ptr %16, align 4, !tbaa !125
  %48 = call noundef ptr @_ZN11ast_manager11mk_and_elimEP3appj(ptr noundef nonnull align 8 dereferenceable(976) %45, ptr noundef %46, i32 noundef %47)
  %49 = load ptr, ptr %12, align 8, !tbaa !130
  %50 = load ptr, ptr %13, align 8, !tbaa !144
  %51 = load ptr, ptr %14, align 8, !tbaa !134
  call void @_ZN4goal12slow_processEbP4exprP3appPN18dependency_managerIN11ast_manager22expr_dependency_configEE10dependencyER7obj_refIS0_S5_ERSA_IS2_S5_E(ptr noundef nonnull align 8 dereferenceable(124) %19, i1 noundef zeroext %41, ptr noundef %44, ptr noundef %48, ptr noundef %49, ptr noundef nonnull align 8 dereferenceable(16) %50, ptr noundef nonnull align 8 dereferenceable(16) %51)
  br label %52

52:                                               ; preds = %40
  %53 = load i32, ptr %16, align 4, !tbaa !125
  %54 = add i32 %53, 1
  store i32 %54, ptr %16, align 4, !tbaa !125
  br label %22, !llvm.loop !182

55:                                               ; preds = %33, %26
  call void @llvm.lifetime.end.p0(i64 4, ptr %16) #3
  %56 = load i32, ptr %17, align 4
  switch i32 %56, label %58 [
    i32 2, label %57
  ]

57:                                               ; preds = %55
  store i32 0, ptr %17, align 4
  br label %58

58:                                               ; preds = %57, %55
  call void @llvm.lifetime.end.p0(i64 4, ptr %15) #3
  %59 = load i32, ptr %17, align 4
  switch i32 %59, label %61 [
    i32 0, label %60
    i32 1, label %60
  ]

60:                                               ; preds = %58, %58
  ret void

61:                                               ; preds = %58
  unreachable
}