; Function Attrs: mustprogress uwtable
define hidden void @_ZN4goal11process_andEbP3appS1_PN18dependency_managerIN11ast_manager22expr_dependency_configEE10dependencyER7obj_refI4exprS3_ERS8_IS0_S3_E(ptr noundef nonnull align 8 dereferenceable(124) %0, i1 noundef zeroext %1, ptr noundef readonly captures(none) %2, ptr noundef %3, ptr noundef %4, ptr noundef nonnull align 8 captures(none) dereferenceable(16) %5, ptr noundef nonnull align 8 captures(none) dereferenceable(16) %6) local_unnamed_addr #4 align 2 {
  %8 = getelementptr inbounds nuw i8, ptr %2, i64 24
  %9 = load i32, ptr %8, align 8, !tbaa !133
  %10 = getelementptr inbounds nuw i8, ptr %0, i64 120
  %.not17 = icmp eq i32 %9, 0
  br i1 %.not17, label %._crit_edge, label %.lr.ph

.lr.ph:                                           ; preds = %7
  %11 = getelementptr inbounds nuw i8, ptr %2, i64 32
  %wide.trip.count = zext i32 %9 to i64
  br label %12

12:                                               ; preds = %.lr.ph, %15
  %indvars.iv = phi i64 [ 0, %.lr.ph ], [ %indvars.iv.next, %15 ]
  %13 = load i32, ptr %10, align 8
  %14 = and i32 %13, 536870912
  %.not = icmp eq i32 %14, 0
  br i1 %.not, label %15, label %._crit_edge

15:                                               ; preds = %12
  %16 = icmp eq i64 %indvars.iv, 0
  %17 = and i1 %1, %16
  %18 = getelementptr inbounds nuw [0 x ptr], ptr %11, i64 0, i64 %indvars.iv
  %19 = load ptr, ptr %18, align 8, !tbaa !114
  %20 = load ptr, ptr %0, align 8, !tbaa !102
  %21 = trunc nuw i64 %indvars.iv to i32
  %22 = tail call noundef ptr @_ZN11ast_manager11mk_and_elimEP3appj(ptr noundef nonnull align 8 dereferenceable(976) %20, ptr noundef %3, i32 noundef %21)
  tail call void @_ZN4goal12slow_processEbP4exprP3appPN18dependency_managerIN11ast_manager22expr_dependency_configEE10dependencyER7obj_refIS0_S5_ERSA_IS2_S5_E(ptr noundef nonnull align 8 dereferenceable(124) %0, i1 noundef zeroext %17, ptr noundef %19, ptr noundef %22, ptr noundef %4, ptr noundef nonnull align 8 dereferenceable(16) %5, ptr noundef nonnull align 8 dereferenceable(16) %6)
  %indvars.iv.next = add nuw nsw i64 %indvars.iv, 1
  %exitcond.not = icmp eq i64 %indvars.iv.next, %wide.trip.count
  br i1 %exitcond.not, label %._crit_edge, label %12, !llvm.loop !152

._crit_edge:                                      ; preds = %15, %12, %7
  ret void
}